; Function Attrs: mustprogress nofree norecurse nosync nounwind memory(readwrite, inaccessiblemem: none) uwtable
define dso_local void @_ZN23btPoint2PointConstraint8getInfo2EPN17btTypedConstraint17btConstraintInfo2E(ptr nocapture noundef nonnull readonly align 8 dereferenceable(384) %this, ptr nocapture noundef %info) unnamed_addr #7 align 2 {
entry:
  %m_rbA = getelementptr inbounds i8, ptr %this, i64 40
  %0 = load ptr, ptr %m_rbA, align 8
  %m_worldTransform.i = getelementptr inbounds i8, ptr %0, i64 8
  %m_rbB = getelementptr inbounds i8, ptr %this, i64 48
  %1 = load ptr, ptr %m_rbB, align 8
  %m_worldTransform.i1 = getelementptr inbounds i8, ptr %1, i64 8
  tail call void @_ZN23btPoint2PointConstraint18getInfo2NonVirtualEPN17btTypedConstraint17btConstraintInfo2ERK11btTransformS5_(ptr noundef nonnull align 8 dereferenceable(384) %this, ptr noundef %info, ptr noundef nonnull align 4 dereferenceable(64) %m_worldTransform.i, ptr noundef nonnull align 4 dereferenceable(64) %m_worldTransform.i1)
  ret void
}